; Function Attrs: mustprogress uwtable
define noundef zeroext i1 @_ZNK6google8protobuf8compiler3cpp13FileGenerator27ShouldSkipDependencyImportsEPKNS0_14FileDescriptorE(ptr noundef nonnull align 8 dereferenceable(752) %this, ptr noundef %dep) local_unnamed_addr #3 align 2 {
entry:
  %opensource_runtime = getelementptr inbounds i8, ptr %this, i64 263
  %0 = load i8, ptr %opensource_runtime, align 1
  %1 = and i8 %0, 1
  %tobool.not = icmp eq i8 %1, 0
  br i1 %tobool.not, label %land.lhs.true, label %if.end

land.lhs.true:                                    ; preds = %entry
  %call = tail call noundef zeroext i1 @_ZNK6google8protobuf8compiler3cpp13FileGenerator9IsDepWeakEPKNS0_14FileDescriptorE(ptr noundef nonnull align 8 dereferenceable(752) %this, ptr noundef %dep)
  br i1 %call, label %return, label %if.end

if.end:                                           ; preds = %land.lhs.true, %entry
  %strip_nonfunctional_codegen = getelementptr inbounds i8, ptr %this, i64 269
  %2 = load i8, ptr %strip_nonfunctional_codegen, align 1
  %3 = and i8 %2, 1
  %tobool3.not = icmp eq i8 %3, 0
  br i1 %tobool3.not, label %if.end9, label %land.lhs.true4

land.lhs.true4:                                   ; preds = %if.end
  %name_.i = getelementptr inbounds i8, ptr %dep, i64 8
  %4 = load ptr, ptr %name_.i, align 8
  %call6 = tail call { i64, ptr } @_ZNKSt7__cxx1112basic_stringIcSt11char_traitsIcESaIcEEcvSt17basic_string_viewIcS2_EEv(ptr noundef nonnull align 8 dereferenceable(32) %4) #22
  %5 = extractvalue { i64, ptr } %call6, 0
  %6 = extractvalue { i64, ptr } %call6, 1
  %call7 = tail call noundef zeroext i1 @_ZN6google8protobuf8compiler19IsKnownFeatureProtoESt17basic_string_viewIcSt11char_traitsIcEE(i64 %5, ptr %6)
  br i1 %call7, label %return, label %if.end9

if.end9:                                          ; preds = %land.lhs.true4, %if.end
  br label %return

return:                                           ; preds = %land.lhs.true4, %land.lhs.true, %if.end9
  %retval.0 = phi i1 [ false, %if.end9 ], [ true, %land.lhs.true ], [ true, %land.lhs.true4 ]
  ret i1 %retval.0
}